target datalayout = "e-m:e-p270:32:32-p271:32:32-p272:64:64-i64:64-i128:128-f80:128-n8:16:32:64-S128"
target triple = "x86_64-unknown-linux-gnu"

%struct.grpc_arg = type { i32, ptr, %"union.(anonymous struct)::grpc_arg_value" }
%"union.(anonymous struct)::grpc_arg_value" = type { %"struct.(anonymous struct)::grpc_arg_value::grpc_arg_pointer" }
%"struct.(anonymous struct)::grpc_arg_value::grpc_arg_pointer" = type { ptr, ptr }
%struct.grpc_channel_args = type { i64, ptr }

@.str = private unnamed_addr constant [137 x i8] c"generated/home/dtcxzyw/WorkSpace/Projects/compilers/llvm-opt-benchmark/bench/grpc/grpc/src/core/lib/security/context/security_context.cc\00", align 1
@.str.22 = private unnamed_addr constant [18 x i8] c"grpc.auth_context\00", align 1
@.str.23 = private unnamed_addr constant [27 x i8] c"Invalid type %d for arg %s\00", align 1

; Function Attrs: mustprogress uwtable
define noundef ptr @_Z26grpc_auth_context_from_argPK8grpc_arg(ptr noundef %arg) #4 {
entry:
  %retval = alloca ptr, align 8
  %arg.addr = alloca ptr, align 8
  store ptr %arg, ptr %arg.addr, align 8
  %0 = load ptr, ptr %arg.addr, align 8
  %key = getelementptr inbounds %struct.grpc_arg, ptr %0, i32 0, i32 1
  %1 = load ptr, ptr %key, align 8
  %call = call i32 @strcmp(ptr noundef %1, ptr noundef @.str.22) #17
  %cmp = icmp ne i32 %call, 0
  br i1 %cmp, label %if.then, label %if.end

if.then:                                          ; preds = %entry
  store ptr null, ptr %retval, align 8
  br label %return

if.end:                                           ; preds = %entry
  %2 = load ptr, ptr %arg.addr, align 8
  %type = getelementptr inbounds %struct.grpc_arg, ptr %2, i32 0, i32 0
  %3 = load i32, ptr %type, align 8
  %cmp1 = icmp ne i32 %3, 2
  br i1 %cmp1, label %if.then2, label %if.end4

if.then2:                                         ; preds = %if.end
  %4 = load ptr, ptr %arg.addr, align 8
  %type3 = getelementptr inbounds %struct.grpc_arg, ptr %4, i32 0, i32 0
  %5 = load i32, ptr %type3, align 8
  call void (ptr, i32, i32, ptr, ...) @gpr_log(ptr noundef @.str, i32 noundef 313, i32 noundef 2, ptr noundef @.str.23, i32 noundef %5, ptr noundef @.str.22)
  store ptr null, ptr %retval, align 8
  br label %return

if.end4:                                          ; preds = %if.end
  %6 = load ptr, ptr %arg.addr, align 8
  %value = getelementptr inbounds %struct.grpc_arg, ptr %6, i32 0, i32 2
  %p = getelementptr inbounds %"struct.(anonymous struct)::grpc_arg_value::grpc_arg_pointer", ptr %value, i32 0, i32 0
  %7 = load ptr, ptr %p, align 8
  store ptr %7, ptr %retval, align 8
  br label %return

return:                                           ; preds = %if.end4, %if.then2, %if.then
  %8 = load ptr, ptr %retval, align 8
  ret ptr %8
}

; Function Attrs: mustprogress uwtable
define noundef ptr @_Z30grpc_find_auth_context_in_argsPK17grpc_channel_args(ptr noundef %args) #4 {
entry:
  %retval = alloca ptr, align 8
  %args.addr = alloca ptr, align 8
  %i = alloca i64, align 8
  %p = alloca ptr, align 8
  store ptr %args, ptr %args.addr, align 8
  %0 = load ptr, ptr %args.addr, align 8
  %cmp = icmp eq ptr %0, null
  br i1 %cmp, label %if.then, label %if.end

if.then:                                          ; preds = %entry
  store ptr null, ptr %retval, align 8
  br label %return

if.end:                                           ; preds = %entry
  store i64 0, ptr %i, align 8
  br label %for.cond

for.cond:                                         ; preds = %for.inc, %if.end
  %1 = load i64, ptr %i, align 8
  %2 = load ptr, ptr %args.addr, align 8
  %num_args = getelementptr inbounds %struct.grpc_channel_args, ptr %2, i32 0, i32 0
  %3 = load i64, ptr %num_args, align 8
  %cmp1 = icmp ult i64 %1, %3
  br i1 %cmp1, label %for.body, label %for.end

for.body:                                         ; preds = %for.cond
  %4 = load ptr, ptr %args.addr, align 8
  %args2 = getelementptr inbounds %struct.grpc_channel_args, ptr %4, i32 0, i32 1
  %5 = load ptr, ptr %args2, align 8
  %6 = load i64, ptr %i, align 8
  %arrayidx = getelementptr inbounds %struct.grpc_arg, ptr %5, i64 %6
  %call = call noundef ptr @_Z26grpc_auth_context_from_argPK8grpc_arg(ptr noundef %arrayidx)
  store ptr %call, ptr %p, align 8
  %7 = load ptr, ptr %p, align 8
  %cmp3 = icmp ne ptr %7, null
  br i1 %cmp3, label %if.then4, label %if.end5

if.then4:                                         ; preds = %for.body
  %8 = load ptr, ptr %p, align 8
  store ptr %8, ptr %retval, align 8
  br label %return

if.end5:                                          ; preds = %for.body
  br label %for.inc

for.inc:                                          ; preds = %if.end5
  %9 = load i64, ptr %i, align 8
  %inc = add i64 %9, 1
  store i64 %inc, ptr %i, align 8
  br label %for.cond, !llvm.loop !7

for.end:                                          ; preds = %for.cond
  store ptr null, ptr %retval, align 8
  br label %return

return:                                           ; preds = %for.end, %if.then4, %if.then
  %10 = load ptr, ptr %retval, align 8
  ret ptr %10
}