; Function Attrs: mustprogress uwtable
define noundef ptr @_Z30grpc_find_auth_context_in_argsPK17grpc_channel_args(ptr noundef readonly %args) local_unnamed_addr #4 {
entry:
  %cmp = icmp eq ptr %args, null
  br i1 %cmp, label %return, label %for.cond.preheader

for.cond.preheader:                               ; preds = %entry
  %0 = load i64, ptr %args, align 8
  %cmp18.not = icmp eq i64 %0, 0
  br i1 %cmp18.not, label %return, label %for.body.lr.ph

for.body.lr.ph:                                   ; preds = %for.cond.preheader
  %args2 = getelementptr inbounds i8, ptr %args, i64 8
  br label %for.body

for.body:                                         ; preds = %for.body.lr.ph, %for.inc
  %1 = phi i64 [ %0, %for.body.lr.ph ], [ %6, %for.inc ]
  %i.09 = phi i64 [ 0, %for.body.lr.ph ], [ %inc, %for.inc ]
  %2 = load ptr, ptr %args2, align 8
  %arrayidx = getelementptr inbounds %struct.grpc_arg, ptr %2, i64 %i.09
  %key.i = getelementptr inbounds i8, ptr %arrayidx, i64 8
  %3 = load ptr, ptr %key.i, align 8
  %call.i = tail call i32 @strcmp(ptr noundef nonnull dereferenceable(1) %3, ptr noundef nonnull dereferenceable(18) @.str.22) #25
  %cmp.not.i = icmp eq i32 %call.i, 0
  br i1 %cmp.not.i, label %if.end.i, label %for.inc

if.end.i:                                         ; preds = %for.body
  %4 = load i32, ptr %arrayidx, align 8
  %cmp1.not.i = icmp eq i32 %4, 2
  br i1 %cmp1.not.i, label %_Z26grpc_auth_context_from_argPK8grpc_arg.exit, label %if.then2.i

if.then2.i:                                       ; preds = %if.end.i
  tail call void (ptr, i32, i32, ptr, ...) @gpr_log(ptr noundef nonnull @.str, i32 noundef 313, i32 noundef 2, ptr noundef nonnull @.str.23, i32 noundef %4, ptr noundef nonnull @.str.22)
  %.pre = load i64, ptr %args, align 8
  br label %for.inc

_Z26grpc_auth_context_from_argPK8grpc_arg.exit:   ; preds = %if.end.i
  %value.i = getelementptr inbounds i8, ptr %arrayidx, i64 16
  %5 = load ptr, ptr %value.i, align 8
  %cmp3.not = icmp eq ptr %5, null
  br i1 %cmp3.not, label %for.inc, label %return

for.inc:                                          ; preds = %for.body, %if.then2.i, %_Z26grpc_auth_context_from_argPK8grpc_arg.exit
  %6 = phi i64 [ %1, %for.body ], [ %.pre, %if.then2.i ], [ %1, %_Z26grpc_auth_context_from_argPK8grpc_arg.exit ]
  %inc = add nuw i64 %i.09, 1
  %cmp1 = icmp ult i64 %inc, %6
  br i1 %cmp1, label %for.body, label %return, !llvm.loop !23

return:                                           ; preds = %_Z26grpc_auth_context_from_argPK8grpc_arg.exit, %for.inc, %for.cond.preheader, %entry
  %retval.0 = phi ptr [ null, %entry ], [ null, %for.cond.preheader ], [ %5, %_Z26grpc_auth_context_from_argPK8grpc_arg.exit ], [ null, %for.inc ]
  ret ptr %retval.0
}